; Function Attrs: mustprogress nofree norecurse nosync nounwind willreturn memory(argmem: readwrite) uwtable
define void @_ZN8Paintbox15movePixmapDeltaEdd(ptr nocapture noundef nonnull align 8 dereferenceable(844) %0, double noundef %1, double noundef %2) local_unnamed_addr #9 align 2 {
  %4 = getelementptr inbounds i8, ptr %0, i64 836
  %5 = load <2 x i32>, ptr %4, align 4
  %6 = sitofp <2 x i32> %5 to <2 x double>
  %7 = insertelement <2 x double> poison, double %1, i64 0
  %8 = insertelement <2 x double> %7, double %2, i64 1
  %9 = fsub <2 x double> %6, %8
  %10 = fptosi <2 x double> %9 to <2 x i32>
  store <2 x i32> %10, ptr %4, align 4
  ret void
}